target datalayout = "e-m:e-p270:32:32-p271:32:32-p272:64:64-i64:64-i128:128-f80:128-n8:16:32:64-S128"
target triple = "x86_64-pc-linux-gnu"

%struct.jpeg_common_struct = type { ptr, ptr, ptr, ptr, i32, i32 }

; Function Attrs: nounwind uwtable
define internal void @self_destruct(ptr noundef %0) #0 {
  %2 = alloca ptr, align 8
  %3 = alloca i32, align 4
  store ptr %0, ptr %2, align 8, !tbaa !3
  call void @llvm.lifetime.start.p0(i64 4, ptr %3) #8
  store i32 1, ptr %3, align 4, !tbaa !40
  br label %4

4:                                                ; preds = %10, %1
  %5 = load i32, ptr %3, align 4, !tbaa !40
  %6 = icmp sge i32 %5, 0
  br i1 %6, label %7, label %13

7:                                                ; preds = %4
  %8 = load ptr, ptr %2, align 8, !tbaa !3
  %9 = load i32, ptr %3, align 4, !tbaa !40
  call void @free_pool(ptr noundef %8, i32 noundef %9)
  br label %10

10:                                               ; preds = %7
  %11 = load i32, ptr %3, align 4, !tbaa !40
  %12 = add nsw i32 %11, -1
  store i32 %12, ptr %3, align 4, !tbaa !40
  br label %4, !llvm.loop !148

13:                                               ; preds = %4
  %14 = load ptr, ptr %2, align 8, !tbaa !3
  %15 = load ptr, ptr %2, align 8, !tbaa !3
  %16 = getelementptr inbounds nuw %struct.jpeg_common_struct, ptr %15, i32 0, i32 1
  %17 = load ptr, ptr %16, align 8, !tbaa !8
  call void @jpeg_free_small(ptr noundef %14, ptr noundef %17, i64 noundef 168)
  %18 = load ptr, ptr %2, align 8, !tbaa !3
  %19 = getelementptr inbounds nuw %struct.jpeg_common_struct, ptr %18, i32 0, i32 1
  store ptr null, ptr %19, align 8, !tbaa !8
  %20 = load ptr, ptr %2, align 8, !tbaa !3
  call void @jpeg_mem_term(ptr noundef %20)
  call void @llvm.lifetime.end.p0(i64 4, ptr %3) #8
  ret void
}