; Function Attrs: nounwind uwtable
define internal void @self_destruct(ptr noundef %0) #0 {
  br label %2

2:                                                ; preds = %1, %2
  %.07 = phi i32 [ 1, %1 ], [ %3, %2 ]
  tail call void @free_pool(ptr noundef %0, i32 noundef %.07)
  %3 = add nsw i32 %.07, -1
  %.not = icmp eq i32 %.07, 0
  br i1 %.not, label %4, label %2, !llvm.loop !115

4:                                                ; preds = %2
  %5 = getelementptr inbounds nuw i8, ptr %0, i64 8
  %6 = load ptr, ptr %5, align 8, !tbaa !3
  tail call void @jpeg_free_small(ptr noundef %0, ptr noundef %6, i64 noundef 168) #9
  store ptr null, ptr %5, align 8, !tbaa !3
  tail call void @jpeg_mem_term(ptr noundef %0) #9
  ret void
}